	.text
	.file	"app_baseline_streamlined.c"
	.file	1 "/usr/bin/../share/upmem/include/stdlib" "stdint.h"
	.file	2 "/home/joao/Git/PiM-Performance-Model/workloads/prim-benchmarks/Benchmarks/VA/baselines/cpu" "app_baseline_streamlined.c"
	.section	.text.create_test_file,"ax",@progbits
	.globl	create_test_file                // -- Begin function create_test_file
	.type	create_test_file,@function
create_test_file:                       // @create_test_file
.Lfunc_begin0:
	.loc	2 30 0                          // app_baseline_streamlined.c:30:0
	.cfi_sections .debug_frame
	.cfi_startproc
// %bb.0:
	.cfi_def_cfa_offset -24
	.cfi_offset 23, -8
	.cfi_offset 22, -4
	sd r22, 16, d22
	add r22, r22, 24
	sw r22, -24, r0
	move r0, 0
.Ltmp0:
	.loc	2 31 5 prologue_end             // app_baseline_streamlined.c:31:5
	call r23, srand
	.loc	2 32 33                         // app_baseline_streamlined.c:32:33
	lw r1, r22, -24
	.loc	2 32 5 is_stmt 0                // app_baseline_streamlined.c:32:5
	move r0, r22
	sw r0, -12, r1
	move r0, .L.str
	call r23, printf
	.loc	2 33 27 is_stmt 1               // app_baseline_streamlined.c:33:27
	lw r0, r22, -24
	.loc	2 33 39 is_stmt 0               // app_baseline_streamlined.c:33:39
	lsl r0, r0, 2
	.loc	2 33 20                         // app_baseline_streamlined.c:33:20
	call r23, malloc
	.loc	2 33 7                          // app_baseline_streamlined.c:33:7
	sw zero, A, r0
	.loc	2 34 27 is_stmt 1               // app_baseline_streamlined.c:34:27
	lw r0, r22, -24
	.loc	2 34 39 is_stmt 0               // app_baseline_streamlined.c:34:39
	lsl r0, r0, 2
	.loc	2 34 20                         // app_baseline_streamlined.c:34:20
	call r23, malloc
	.loc	2 34 7                          // app_baseline_streamlined.c:34:7
	sw zero, B, r0
	.loc	2 35 27 is_stmt 1               // app_baseline_streamlined.c:35:27
	lw r0, r22, -24
	.loc	2 35 39 is_stmt 0               // app_baseline_streamlined.c:35:39
	lsl r0, r0, 2
	.loc	2 35 20                         // app_baseline_streamlined.c:35:20
	call r23, malloc
	.loc	2 35 7                          // app_baseline_streamlined.c:35:7
	sw zero, C, r0
.Ltmp1:
	.loc	2 37 14 is_stmt 1               // app_baseline_streamlined.c:37:14
	sw r22, -20, 0
	.loc	2 37 10 is_stmt 0               // app_baseline_streamlined.c:37:10
	jump .LBB0_1
.LBB0_1:                                // =>This Inner Loop Header: Depth=1
.Ltmp2:
	.loc	2 37 21                         // app_baseline_streamlined.c:37:21
	lw r0, r22, -20
	.loc	2 37 25                         // app_baseline_streamlined.c:37:25
	lw r1, r22, -24
.Ltmp3:
	.loc	2 37 5                          // app_baseline_streamlined.c:37:5
	jgeu r0, r1, .LBB0_4
	jump .LBB0_2
.LBB0_2:                                //   in Loop: Header=BB0_1 Depth=1
.Ltmp4:
	.loc	2 38 22 is_stmt 1               // app_baseline_streamlined.c:38:22
	call r23, rand
	move r1, r0
	.loc	2 38 9 is_stmt 0                // app_baseline_streamlined.c:38:9
	lw r0, zero, A
	.loc	2 38 11                         // app_baseline_streamlined.c:38:11
	lw r2, r22, -20
	.loc	2 38 9                          // app_baseline_streamlined.c:38:9
	lsl_add r0, r0, r2, 2
	.loc	2 38 14                         // app_baseline_streamlined.c:38:14
	sw r0, 0, r1
	.loc	2 39 22 is_stmt 1               // app_baseline_streamlined.c:39:22
	call r23, rand
	move r1, r0
	.loc	2 39 9 is_stmt 0                // app_baseline_streamlined.c:39:9
	lw r0, zero, B
	.loc	2 39 11                         // app_baseline_streamlined.c:39:11
	lw r2, r22, -20
	.loc	2 39 9                          // app_baseline_streamlined.c:39:9
	lsl_add r0, r0, r2, 2
	.loc	2 39 14                         // app_baseline_streamlined.c:39:14
	sw r0, 0, r1
	.loc	2 40 5 is_stmt 1                // app_baseline_streamlined.c:40:5
	jump .LBB0_3
.Ltmp5:
.LBB0_3:                                //   in Loop: Header=BB0_1 Depth=1
	.loc	2 37 39                         // app_baseline_streamlined.c:37:39
	lw r0, r22, -20
	add r0, r0, 1
	sw r22, -20, r0
	.loc	2 37 5 is_stmt 0                // app_baseline_streamlined.c:37:5
	jump .LBB0_1
.Ltmp6:
.LBB0_4:
	.loc	2 41 1 is_stmt 1                // app_baseline_streamlined.c:41:1
	ld d22, r22, -8
	jump r23
.Ltmp7:
.Lfunc_end0:
	.size	create_test_file, .Lfunc_end0-create_test_file
	.cfi_endproc
	.section	.stack_sizes,"o",@progbits,.text.create_test_file
	.long	.Lfunc_begin0
	.byte	24
	.section	.text.create_test_file,"ax",@progbits
                                        // -- End function
	.section	.text.main,"ax",@progbits
	.globl	main                            // -- Begin function main
	.type	main,@function
main:                                   // @main
.Lfunc_begin1:
	.loc	2 128 0                         // app_baseline_streamlined.c:128:0
	.cfi_startproc
// %bb.0:
	.cfi_def_cfa_offset -24
	.cfi_offset 23, -8
	.cfi_offset 22, -4
	sd r22, 16, d22
	add r22, r22, 24
	sw r22, -24, 0
.Ltmp8:
	.loc	2 133 24 prologue_end           // app_baseline_streamlined.c:133:24
	sw r22, -20, 4
	move r0, 4
	sw r22, -16, r0
	.loc	2 136 5                         // app_baseline_streamlined.c:136:5
	call r23, create_test_file
	lw r0, r22, -16
	.loc	2 142 5                         // app_baseline_streamlined.c:142:5
	call r23, vector_addition_host
	.loc	2 149 10                        // app_baseline_streamlined.c:149:10
	lw r0, zero, A
	.loc	2 149 5 is_stmt 0               // app_baseline_streamlined.c:149:5
	call r23, free
	.loc	2 150 10 is_stmt 1              // app_baseline_streamlined.c:150:10
	lw r0, zero, B
	.loc	2 150 5 is_stmt 0               // app_baseline_streamlined.c:150:5
	call r23, free
	.loc	2 151 10 is_stmt 1              // app_baseline_streamlined.c:151:10
	lw r0, zero, C
	.loc	2 151 5 is_stmt 0               // app_baseline_streamlined.c:151:5
	call r23, free
	move r0, 0
	.loc	2 153 5 is_stmt 1               // app_baseline_streamlined.c:153:5
	ld d22, r22, -8
	jump r23
.Ltmp9:
.Lfunc_end1:
	.size	main, .Lfunc_end1-main
	.cfi_endproc
	.section	.stack_sizes,"o",@progbits,.text.main
	.long	.Lfunc_begin1
	.byte	24
	.section	.text.main,"ax",@progbits
                                        // -- End function
	.section	.text.vector_addition_host,"ax",@progbits
	.type	vector_addition_host,@function  // -- Begin function vector_addition_host
vector_addition_host:                   // @vector_addition_host
.Lfunc_begin2:
	.loc	2 55 0                          // app_baseline_streamlined.c:55:0
	.cfi_startproc
// %bb.0:
	.cfi_def_cfa_offset -16
	.cfi_offset 23, -8
	.cfi_offset 22, -4
	sd r22, 8, d22
	add r22, r22, 16
	sw r22, -16, r0
.Ltmp10:
	.loc	2 58 5 prologue_end             // app_baseline_streamlined.c:58:5
	call r23, start_region
.Ltmp11:
	.loc	2 59 14                         // app_baseline_streamlined.c:59:14
	sw r22, -12, 0
	.loc	2 59 10 is_stmt 0               // app_baseline_streamlined.c:59:10
	jump .LBB2_1
.LBB2_1:                                // =>This Inner Loop Header: Depth=1
.Ltmp12:
	.loc	2 59 21                         // app_baseline_streamlined.c:59:21
	lw r0, r22, -12
	.loc	2 59 25                         // app_baseline_streamlined.c:59:25
	lw r1, r22, -16
.Ltmp13:
	.loc	2 59 5                          // app_baseline_streamlined.c:59:5
	jgeu r0, r1, .LBB2_4
	jump .LBB2_2
.LBB2_2:                                //   in Loop: Header=BB2_1 Depth=1
.Ltmp14:
	.loc	2 60 16 is_stmt 1               // app_baseline_streamlined.c:60:16
	lw r0, zero, A
	.loc	2 60 18 is_stmt 0               // app_baseline_streamlined.c:60:18
	lw r2, r22, -12
	.loc	2 60 16                         // app_baseline_streamlined.c:60:16
	lsl_add r0, r0, r2, 2
	lw r0, r0, 0
	.loc	2 60 23                         // app_baseline_streamlined.c:60:23
	lw r1, zero, B
	lsl_add r1, r1, r2, 2
	lw r1, r1, 0
	.loc	2 60 21                         // app_baseline_streamlined.c:60:21
	add r1, r0, r1
	.loc	2 60 9                          // app_baseline_streamlined.c:60:9
	lw r0, zero, C
	lsl_add r0, r0, r2, 2
	.loc	2 60 14                         // app_baseline_streamlined.c:60:14
	sw r0, 0, r1
	.loc	2 61 5 is_stmt 1                // app_baseline_streamlined.c:61:5
	jump .LBB2_3
.Ltmp15:
.LBB2_3:                                //   in Loop: Header=BB2_1 Depth=1
	.loc	2 59 39                         // app_baseline_streamlined.c:59:39
	lw r0, r22, -12
	add r0, r0, 1
	sw r22, -12, r0
	.loc	2 59 5 is_stmt 0                // app_baseline_streamlined.c:59:5
	jump .LBB2_1
.Ltmp16:
.LBB2_4:
	.loc	2 62 5 is_stmt 1                // app_baseline_streamlined.c:62:5
	call r23, end_region
	.loc	2 63 1                          // app_baseline_streamlined.c:63:1
	ld d22, r22, -8
	jump r23
.Ltmp17:
.Lfunc_end2:
	.size	vector_addition_host, .Lfunc_end2-vector_addition_host
	.cfi_endproc
	.section	.stack_sizes,"o",@progbits,.text.vector_addition_host
	.long	.Lfunc_begin2
	.byte	16
	.section	.text.vector_addition_host,"ax",@progbits
                                        // -- End function
	.type	.L.str,@object                  // @.str
	.section	.rodata.str1.1,"aMS",@progbits,1
.L.str:
	.asciz	"nr_elements\t%u\t"
	.size	.L.str, 16

	.type	A,@object                       // @A
	.section	.bss.A,"aw",@nobits
	.p2align	2
A:
	.long	0
	.size	A, 4

	.type	B,@object                       // @B
	.section	.bss.B,"aw",@nobits
	.p2align	2
B:
	.long	0
	.size	B, 4

	.type	C,@object                       // @C
	.section	.bss.C,"aw",@nobits
	.p2align	2
C:
	.long	0
	.size	C, 4
